; Function Attrs: mustprogress uwtable
define internal noundef zeroext i1 @_ZN32pxrInternal_v0_24__pxrReserved__12_GLOBAL__N_120Js_PolymorphicWriterIN12_GLOBAL__N_110_WriterFixIN3pxr9rapidjson6WriterINS5_19BasicOStreamWrapperISoEENS5_4UTF8IcEESA_NS5_12CrtAllocatorELj0EEEEEE6StringEPKcm(ptr noundef nonnull align 8 dereferenceable(69) %0, ptr noundef %1, i64 noundef %2) unnamed_addr #3 align 2 {
  %4 = getelementptr inbounds nuw i8, ptr %0, i64 8
  %5 = trunc i64 %2 to i32
  %6 = getelementptr inbounds nuw i8, ptr %0, i64 40
  %7 = load ptr, ptr %6, align 8
  %8 = getelementptr inbounds nuw i8, ptr %0, i64 32
  %9 = load ptr, ptr %8, align 8
  %.not.i.i = icmp eq ptr %7, %9
  br i1 %.not.i.i, label %25, label %10

10:                                               ; preds = %3
  %11 = getelementptr inbounds i8, ptr %7, i64 -16
  %12 = load i64, ptr %11, align 8
  %.not6.i.i = icmp eq i64 %12, 0
  br i1 %.not6.i.i, label %23, label %.sink.split.i.i

.sink.split.i.i:                                  ; preds = %10
  %13 = getelementptr inbounds i8, ptr %7, i64 -8
  %14 = load i8, ptr %13, align 8
  %15 = trunc i8 %14 to i1
  %16 = load ptr, ptr %4, align 8
  %17 = and i64 %12, 1
  %18 = icmp eq i64 %17, 0
  %19 = or i1 %18, %15
  %.sink7.i.i = select i1 %19, i8 44, i8 58
  %20 = load ptr, ptr %16, align 8
  %21 = tail call noundef nonnull align 8 dereferenceable(8) ptr @_ZNSo3putEc(ptr noundef nonnull align 8 dereferenceable(8) %20, i8 noundef signext %.sink7.i.i)
  %.pre.i = load i64, ptr %11, align 8
  %22 = add i64 %.pre.i, 1
  br label %23

23:                                               ; preds = %.sink.split.i.i, %10
  %24 = phi i64 [ %22, %.sink.split.i.i ], [ 1, %10 ]
  store i64 %24, ptr %11, align 8
  br label %_ZN3pxr9rapidjson6WriterINS0_19BasicOStreamWrapperISoEENS0_4UTF8IcEES5_NS0_12CrtAllocatorELj0EE6PrefixENS0_4TypeE.exit.i

25:                                               ; preds = %3
  %26 = getelementptr inbounds nuw i8, ptr %0, i64 68
  store i8 1, ptr %26, align 4
  br label %_ZN3pxr9rapidjson6WriterINS0_19BasicOStreamWrapperISoEENS0_4UTF8IcEES5_NS0_12CrtAllocatorELj0EE6PrefixENS0_4TypeE.exit.i

_ZN3pxr9rapidjson6WriterINS0_19BasicOStreamWrapperISoEENS0_4UTF8IcEES5_NS0_12CrtAllocatorELj0EE6PrefixENS0_4TypeE.exit.i: ; preds = %25, %23
  %27 = tail call noundef zeroext i1 @_ZN3pxr9rapidjson6WriterINS0_19BasicOStreamWrapperISoEENS0_4UTF8IcEES5_NS0_12CrtAllocatorELj0EE11WriteStringEPKcj(ptr noundef nonnull align 8 dereferenceable(61) %4, ptr noundef %1, i32 noundef %5)
  %28 = load ptr, ptr %6, align 8
  %29 = load ptr, ptr %8, align 8
  %30 = icmp eq ptr %28, %29
  br i1 %30, label %31, label %_ZN3pxr9rapidjson6WriterINS0_19BasicOStreamWrapperISoEENS0_4UTF8IcEES5_NS0_12CrtAllocatorELj0EE6StringEPKcjb.exit

31:                                               ; preds = %_ZN3pxr9rapidjson6WriterINS0_19BasicOStreamWrapperISoEENS0_4UTF8IcEES5_NS0_12CrtAllocatorELj0EE6PrefixENS0_4TypeE.exit.i
  %32 = load ptr, ptr %4, align 8
  %33 = load ptr, ptr %32, align 8
  %34 = tail call noundef nonnull align 8 dereferenceable(8) ptr @_ZNSo5flushEv(ptr noundef nonnull align 8 dereferenceable(8) %33)
  br label %_ZN3pxr9rapidjson6WriterINS0_19BasicOStreamWrapperISoEENS0_4UTF8IcEES5_NS0_12CrtAllocatorELj0EE6StringEPKcjb.exit

_ZN3pxr9rapidjson6WriterINS0_19BasicOStreamWrapperISoEENS0_4UTF8IcEES5_NS0_12CrtAllocatorELj0EE6StringEPKcjb.exit: ; preds = %_ZN3pxr9rapidjson6WriterINS0_19BasicOStreamWrapperISoEENS0_4UTF8IcEES5_NS0_12CrtAllocatorELj0EE6PrefixENS0_4TypeE.exit.i, %31
  ret i1 %27
}